target datalayout = "e-m:e-p270:32:32-p271:32:32-p272:64:64-i64:64-i128:128-f80:128-n8:16:32:64-S128"
target triple = "x86_64-pc-linux-gnu"

; Function Attrs: nounwind uwtable
define void @lv_obj_transform_point_array(ptr noundef %0, ptr noundef %1, i64 noundef %2, i32 noundef %3) #0 {
  %5 = alloca ptr, align 8
  %6 = alloca ptr, align 8
  %7 = alloca i64, align 8
  %8 = alloca i32, align 4
  %9 = alloca i32, align 4
  %10 = alloca i8, align 1
  %11 = alloca i8, align 1
  %12 = alloca i8, align 1
  store ptr %0, ptr %5, align 8, !tbaa !3
  store ptr %1, ptr %6, align 8, !tbaa !3
  store i64 %2, ptr %7, align 8, !tbaa !54
  store i32 %3, ptr %8, align 4, !tbaa !7
  %13 = load ptr, ptr %5, align 8, !tbaa !3
  %14 = icmp ne ptr %13, null
  br i1 %14, label %15, label %70

15:                                               ; preds = %4
  call void @llvm.lifetime.start.p0(i64 4, ptr %9) #5
  %16 = load ptr, ptr %5, align 8, !tbaa !3
  %17 = call i32 @lv_obj_get_layer_type(ptr noundef %16)
  store i32 %17, ptr %9, align 4, !tbaa !7
  call void @llvm.lifetime.start.p0(i64 1, ptr %10) #5
  %18 = load i32, ptr %9, align 4, !tbaa !7
  %19 = icmp eq i32 %18, 2
  %20 = zext i1 %19 to i8
  store i8 %20, ptr %10, align 1, !tbaa !10
  call void @llvm.lifetime.start.p0(i64 1, ptr %11) #5
  %21 = load i32, ptr %8, align 4, !tbaa !7
  %22 = and i32 %21, 1
  %23 = icmp ne i32 %22, 0
  %24 = zext i1 %23 to i8
  store i8 %24, ptr %11, align 1, !tbaa !10
  call void @llvm.lifetime.start.p0(i64 1, ptr %12) #5
  %25 = load i32, ptr %8, align 4, !tbaa !7
  %26 = and i32 %25, 2
  %27 = icmp ne i32 %26, 0
  %28 = zext i1 %27 to i8
  store i8 %28, ptr %12, align 1, !tbaa !10
  %29 = load i8, ptr %12, align 1, !tbaa !10, !range !12, !noundef !13
  %30 = trunc i8 %29 to i1
  br i1 %30, label %31, label %50

31:                                               ; preds = %15
  %32 = load i8, ptr %11, align 1, !tbaa !10, !range !12, !noundef !13
  %33 = trunc i8 %32 to i1
  br i1 %33, label %34, label %40

34:                                               ; preds = %31
  %35 = load ptr, ptr %5, align 8, !tbaa !3
  %36 = call ptr @lv_obj_get_parent(ptr noundef %35)
  %37 = load ptr, ptr %6, align 8, !tbaa !3
  %38 = load i64, ptr %7, align 8, !tbaa !54
  %39 = load i32, ptr %8, align 4, !tbaa !7
  call void @lv_obj_transform_point_array(ptr noundef %36, ptr noundef %37, i64 noundef %38, i32 noundef %39)
  br label %40

40:                                               ; preds = %34, %31
  %41 = load i8, ptr %10, align 1, !tbaa !10, !range !12, !noundef !13
  %42 = trunc i8 %41 to i1
  br i1 %42, label %43, label %49

43:                                               ; preds = %40
  %44 = load ptr, ptr %5, align 8, !tbaa !3
  %45 = load ptr, ptr %6, align 8, !tbaa !3
  %46 = load i64, ptr %7, align 8, !tbaa !54
  %47 = load i8, ptr %12, align 1, !tbaa !10, !range !12, !noundef !13
  %48 = trunc i8 %47 to i1
  call void @transform_point_array(ptr noundef %44, ptr noundef %45, i64 noundef %46, i1 noundef zeroext %48)
  br label %49

49:                                               ; preds = %43, %40
  br label %69

50:                                               ; preds = %15
  %51 = load i8, ptr %10, align 1, !tbaa !10, !range !12, !noundef !13
  %52 = trunc i8 %51 to i1
  br i1 %52, label %53, label %59

53:                                               ; preds = %50
  %54 = load ptr, ptr %5, align 8, !tbaa !3
  %55 = load ptr, ptr %6, align 8, !tbaa !3
  %56 = load i64, ptr %7, align 8, !tbaa !54
  %57 = load i8, ptr %12, align 1, !tbaa !10, !range !12, !noundef !13
  %58 = trunc i8 %57 to i1
  call void @transform_point_array(ptr noundef %54, ptr noundef %55, i64 noundef %56, i1 noundef zeroext %58)
  br label %59

59:                                               ; preds = %53, %50
  %60 = load i8, ptr %11, align 1, !tbaa !10, !range !12, !noundef !13
  %61 = trunc i8 %60 to i1
  br i1 %61, label %62, label %68

62:                                               ; preds = %59
  %63 = load ptr, ptr %5, align 8, !tbaa !3
  %64 = call ptr @lv_obj_get_parent(ptr noundef %63)
  %65 = load ptr, ptr %6, align 8, !tbaa !3
  %66 = load i64, ptr %7, align 8, !tbaa !54
  %67 = load i32, ptr %8, align 4, !tbaa !7
  call void @lv_obj_transform_point_array(ptr noundef %64, ptr noundef %65, i64 noundef %66, i32 noundef %67)
  br label %68

68:                                               ; preds = %62, %59
  br label %69

69:                                               ; preds = %68, %49
  call void @llvm.lifetime.end.p0(i64 1, ptr %12) #5
  call void @llvm.lifetime.end.p0(i64 1, ptr %11) #5
  call void @llvm.lifetime.end.p0(i64 1, ptr %10) #5
  call void @llvm.lifetime.end.p0(i64 4, ptr %9) #5
  br label %70

70:                                               ; preds = %69, %4
  ret void
}