; Function Attrs: nounwind uwtable
define void @lv_obj_transform_point_array(ptr noundef %0, ptr noundef %1, i64 noundef %2, i32 noundef %3) local_unnamed_addr #0 {
  %.not32 = icmp eq ptr %0, null
  br i1 %.not32, label %.loopexit, label %.lr.ph

.lr.ph:                                           ; preds = %4
  %5 = and i32 %3, 1
  %.not26 = icmp eq i32 %5, 0
  %6 = and i32 %3, 2
  %.not27 = icmp ne i32 %6, 0
  br i1 %.not27, label %.lr.ph.split, label %.lr.ph.split.us

.lr.ph.split.us:                                  ; preds = %.lr.ph
  br i1 %.not26, label %.lr.ph.split.us.split.us, label %.lr.ph.split.us.split

.lr.ph.split.us.split.us:                         ; preds = %.lr.ph.split.us
  %7 = tail call i32 @lv_obj_get_layer_type(ptr noundef nonnull %0) #8
  %8 = icmp eq i32 %7, 2
  br i1 %8, label %.loopexit.sink.split, label %.loopexit

.lr.ph.split.us.split:                            ; preds = %.lr.ph.split.us, %tailrecurse.us
  %.tr33.us = phi ptr [ %12, %tailrecurse.us ], [ %0, %.lr.ph.split.us ]
  %9 = tail call i32 @lv_obj_get_layer_type(ptr noundef nonnull %.tr33.us) #8
  %10 = icmp eq i32 %9, 2
  br i1 %10, label %11, label %tailrecurse.us

11:                                               ; preds = %.lr.ph.split.us.split
  tail call fastcc void @transform_point_array(ptr noundef %.tr33.us, ptr noundef %1, i64 noundef %2, i1 noundef zeroext false)
  br label %tailrecurse.us

tailrecurse.us:                                   ; preds = %11, %.lr.ph.split.us.split
  %12 = tail call ptr @lv_obj_get_parent(ptr noundef nonnull %.tr33.us) #8
  %.not.us = icmp eq ptr %12, null
  br i1 %.not.us, label %.loopexit, label %.lr.ph.split.us.split

.lr.ph.split:                                     ; preds = %.lr.ph
  %13 = tail call i32 @lv_obj_get_layer_type(ptr noundef nonnull %0) #8
  %14 = icmp eq i32 %13, 2
  br i1 %.not26, label %17, label %15

15:                                               ; preds = %.lr.ph.split
  %16 = tail call ptr @lv_obj_get_parent(ptr noundef nonnull %0) #8
  tail call void @lv_obj_transform_point_array(ptr noundef %16, ptr noundef %1, i64 noundef %2, i32 noundef %3)
  br label %17

17:                                               ; preds = %15, %.lr.ph.split
  br i1 %14, label %.loopexit.sink.split, label %.loopexit

.loopexit.sink.split:                             ; preds = %17, %.lr.ph.split.us.split.us
  tail call fastcc void @transform_point_array(ptr noundef %0, ptr noundef %1, i64 noundef %2, i1 noundef zeroext %.not27)
  br label %.loopexit

.loopexit:                                        ; preds = %tailrecurse.us, %.loopexit.sink.split, %4, %.lr.ph.split.us.split.us, %17
  ret void
}